target datalayout = "e-m:e-p270:32:32-p271:32:32-p272:64:64-i64:64-i128:128-f80:128-n8:16:32:64-S128"
target triple = "x86_64-pc-linux-gnu"

%struct.BWDIFDSPContext = type { ptr, ptr, ptr, ptr }

; Function Attrs: cold nounwind optsize uwtable
define void @ff_bwdif_init_filter_line(ptr noundef %0, i32 noundef %1) #3 {
  %3 = alloca ptr, align 8
  %4 = alloca i32, align 4
  store ptr %0, ptr %3, align 8, !tbaa !19
  store i32 %1, ptr %4, align 4, !tbaa !8
  %5 = load ptr, ptr %3, align 8, !tbaa !19
  %6 = getelementptr inbounds nuw %struct.BWDIFDSPContext, ptr %5, i32 0, i32 3
  store ptr null, ptr %6, align 8, !tbaa !21
  %7 = load i32, ptr %4, align 4, !tbaa !8
  %8 = icmp sgt i32 %7, 8
  br i1 %8, label %9, label %16

9:                                                ; preds = %2
  %10 = load ptr, ptr %3, align 8, !tbaa !19
  %11 = getelementptr inbounds nuw %struct.BWDIFDSPContext, ptr %10, i32 0, i32 0
  store ptr @filter_intra_16bit, ptr %11, align 8, !tbaa !23
  %12 = load ptr, ptr %3, align 8, !tbaa !19
  %13 = getelementptr inbounds nuw %struct.BWDIFDSPContext, ptr %12, i32 0, i32 1
  store ptr @filter_line_c_16bit, ptr %13, align 8, !tbaa !24
  %14 = load ptr, ptr %3, align 8, !tbaa !19
  %15 = getelementptr inbounds nuw %struct.BWDIFDSPContext, ptr %14, i32 0, i32 2
  store ptr @filter_edge_16bit, ptr %15, align 8, !tbaa !25
  br label %23

16:                                               ; preds = %2
  %17 = load ptr, ptr %3, align 8, !tbaa !19
  %18 = getelementptr inbounds nuw %struct.BWDIFDSPContext, ptr %17, i32 0, i32 0
  store ptr @ff_bwdif_filter_intra_c, ptr %18, align 8, !tbaa !23
  %19 = load ptr, ptr %3, align 8, !tbaa !19
  %20 = getelementptr inbounds nuw %struct.BWDIFDSPContext, ptr %19, i32 0, i32 1
  store ptr @ff_bwdif_filter_line_c, ptr %20, align 8, !tbaa !24
  %21 = load ptr, ptr %3, align 8, !tbaa !19
  %22 = getelementptr inbounds nuw %struct.BWDIFDSPContext, ptr %21, i32 0, i32 2
  store ptr @ff_bwdif_filter_edge_c, ptr %22, align 8, !tbaa !25
  br label %23

23:                                               ; preds = %16, %9
  ret void
}