; Function Attrs: cold mustprogress nofree norecurse nosync nounwind optsize willreturn memory(argmem: write) uwtable
define void @ff_bwdif_init_filter_line(ptr noundef writeonly captures(none) initializes((0, 32)) %0, i32 noundef %1) local_unnamed_addr #2 {
  %3 = getelementptr inbounds nuw i8, ptr %0, i64 24
  store ptr null, ptr %3, align 8, !tbaa !11
  %4 = icmp sgt i32 %1, 8
  %ff_bwdif_filter_intra_c.sink = select i1 %4, ptr @filter_intra_16bit, ptr @ff_bwdif_filter_intra_c
  %ff_bwdif_filter_line_c.sink = select i1 %4, ptr @filter_line_c_16bit, ptr @ff_bwdif_filter_line_c
  %ff_bwdif_filter_edge_c.sink = select i1 %4, ptr @filter_edge_16bit, ptr @ff_bwdif_filter_edge_c
  store ptr %ff_bwdif_filter_intra_c.sink, ptr %0, align 8, !tbaa !14
  %5 = getelementptr inbounds nuw i8, ptr %0, i64 8
  store ptr %ff_bwdif_filter_line_c.sink, ptr %5, align 8, !tbaa !15
  %6 = getelementptr inbounds nuw i8, ptr %0, i64 16
  store ptr %ff_bwdif_filter_edge_c.sink, ptr %6, align 8, !tbaa !16
  ret void
}